target datalayout = "e-m:e-p270:32:32-p271:32:32-p272:64:64-i64:64-i128:128-f80:128-n8:16:32:64-S128"
target triple = "x86_64-unknown-linux-gnu"

%struct.b2Vec2 = type { float, float }
%struct.b2JointUserData = type { i64 }
%struct.b2PrismaticJointDef = type { %struct.b2JointDef.base, %struct.b2Vec2, %struct.b2Vec2, %struct.b2Vec2, float, i8, float, float, i8, float, float }
%struct.b2JointDef.base = type <{ i32, [4 x i8], %struct.b2JointUserData, ptr, ptr, i8 }>
%class.b2PrismaticJoint = type <{ %class.b2Joint, %struct.b2Vec2, %struct.b2Vec2, %struct.b2Vec2, %struct.b2Vec2, float, %struct.b2Vec2, float, float, float, float, float, float, float, i8, i8, [2 x i8], i32, i32, %struct.b2Vec2, %struct.b2Vec2, float, float, float, float, %struct.b2Vec2, %struct.b2Vec2, float, float, float, float, %struct.b2Mat22, float, float, [4 x i8] }>
%class.b2Joint = type { ptr, i32, ptr, ptr, %struct.b2JointEdge, %struct.b2JointEdge, ptr, ptr, i32, i8, i8, %struct.b2JointUserData }
%struct.b2JointEdge = type { ptr, ptr, ptr, ptr }
%struct.b2Mat22 = type { %struct.b2Vec2, %struct.b2Vec2 }

; Function Attrs: mustprogress nounwind uwtable
define linkonce_odr hidden void @_ZN6b2Vec2C2Eff(ptr noundef nonnull align 4 dereferenceable(8) %this, float noundef %xIn, float noundef %yIn) unnamed_addr #2 comdat align 2 {
entry:
  %this.addr = alloca ptr, align 8
  %xIn.addr = alloca float, align 4
  %yIn.addr = alloca float, align 4
  store ptr %this, ptr %this.addr, align 8
  store float %xIn, ptr %xIn.addr, align 4
  store float %yIn, ptr %yIn.addr, align 4
  %this1 = load ptr, ptr %this.addr, align 8
  %x = getelementptr inbounds %struct.b2Vec2, ptr %this1, i32 0, i32 0
  %0 = load float, ptr %xIn.addr, align 4
  store float %0, ptr %x, align 4
  %y = getelementptr inbounds %struct.b2Vec2, ptr %this1, i32 0, i32 1
  %1 = load float, ptr %yIn.addr, align 4
  store float %1, ptr %y, align 4
  ret void
}

; Function Attrs: mustprogress nounwind uwtable
define linkonce_odr hidden noundef float @_ZNK6b2Vec26LengthEv(ptr noundef nonnull align 4 dereferenceable(8) %this) #2 comdat align 2 {
entry:
  %this.addr = alloca ptr, align 8
  store ptr %this, ptr %this.addr, align 8
  %this1 = load ptr, ptr %this.addr, align 8
  %x = getelementptr inbounds %struct.b2Vec2, ptr %this1, i32 0, i32 0
  %0 = load float, ptr %x, align 4
  %x2 = getelementptr inbounds %struct.b2Vec2, ptr %this1, i32 0, i32 0
  %1 = load float, ptr %x2, align 4
  %y = getelementptr inbounds %struct.b2Vec2, ptr %this1, i32 0, i32 1
  %2 = load float, ptr %y, align 4
  %y3 = getelementptr inbounds %struct.b2Vec2, ptr %this1, i32 0, i32 1
  %3 = load float, ptr %y3, align 4
  %mul4 = fmul float %2, %3
  %4 = call float @llvm.fmuladd.f32(float %0, float %1, float %mul4)
  %call = call float @sqrtf(float noundef %4) #9
  ret float %call
}

; Function Attrs: mustprogress nounwind uwtable
define linkonce_odr hidden void @_ZN7b2JointD2Ev(ptr noundef nonnull align 8 dereferenceable(128) %this) unnamed_addr #2 comdat align 2 {
entry:
  %this.addr = alloca ptr, align 8
  store ptr %this, ptr %this.addr, align 8
  ret void
}

; Function Attrs: mustprogress nounwind uwtable
define linkonce_odr hidden void @_ZN6b2Vec27SetZeroEv(ptr noundef nonnull align 4 dereferenceable(8) %this) #2 comdat align 2 {
entry:
  %this.addr = alloca ptr, align 8
  store ptr %this, ptr %this.addr, align 8
  %this1 = load ptr, ptr %this.addr, align 8
  %x = getelementptr inbounds %struct.b2Vec2, ptr %this1, i32 0, i32 0
  store float 0.000000e+00, ptr %x, align 4
  %y = getelementptr inbounds %struct.b2Vec2, ptr %this1, i32 0, i32 1
  store float 0.000000e+00, ptr %y, align 4
  ret void
}

; Function Attrs: mustprogress uwtable
define linkonce_odr hidden <2 x float> @_Z7b2CrossfRK6b2Vec2(float noundef %s, ptr noundef nonnull align 4 dereferenceable(8) %a) #0 comdat {
entry:
  %retval = alloca %struct.b2Vec2, align 4
  %s.addr = alloca float, align 4
  %a.addr = alloca ptr, align 8
  store float %s, ptr %s.addr, align 4
  store ptr %a, ptr %a.addr, align 8
  %0 = load float, ptr %s.addr, align 4
  %fneg = fneg float %0
  %1 = load ptr, ptr %a.addr, align 8
  %y = getelementptr inbounds %struct.b2Vec2, ptr %1, i32 0, i32 1
  %2 = load float, ptr %y, align 4
  %mul = fmul float %fneg, %2
  %3 = load float, ptr %s.addr, align 4
  %4 = load ptr, ptr %a.addr, align 8
  %x = getelementptr inbounds %struct.b2Vec2, ptr %4, i32 0, i32 0
  %5 = load float, ptr %x, align 4
  %mul1 = fmul float %3, %5
  call void @_ZN6b2Vec2C2Eff(ptr noundef nonnull align 4 dereferenceable(8) %retval, float noundef %mul, float noundef %mul1)
  %6 = load <2 x float>, ptr %retval, align 4
  ret <2 x float> %6
}

; Function Attrs: mustprogress uwtable
define linkonce_odr hidden noundef float @_ZN6b2Vec29NormalizeEv(ptr noundef nonnull align 4 dereferenceable(8) %this) #4 comdat align 2 {
entry:
  %retval = alloca float, align 4
  %this.addr = alloca ptr, align 8
  %length = alloca float, align 4
  %invLength = alloca float, align 4
  store ptr %this, ptr %this.addr, align 8
  %this1 = load ptr, ptr %this.addr, align 8
  %call = call noundef float @_ZNK6b2Vec26LengthEv(ptr noundef nonnull align 4 dereferenceable(8) %this1)
  store float %call, ptr %length, align 4
  %0 = load float, ptr %length, align 4
  %cmp = fcmp olt float %0, 0x3E80000000000000
  br i1 %cmp, label %if.then, label %if.end

if.then:                                          ; preds = %entry
  store float 0.000000e+00, ptr %retval, align 4
  br label %return

if.end:                                           ; preds = %entry
  %1 = load float, ptr %length, align 4
  %div = fdiv float 1.000000e+00, %1
  store float %div, ptr %invLength, align 4
  %2 = load float, ptr %invLength, align 4
  %x = getelementptr inbounds %struct.b2Vec2, ptr %this1, i32 0, i32 0
  %3 = load float, ptr %x, align 4
  %mul = fmul float %3, %2
  store float %mul, ptr %x, align 4
  %4 = load float, ptr %invLength, align 4
  %y = getelementptr inbounds %struct.b2Vec2, ptr %this1, i32 0, i32 1
  %5 = load float, ptr %y, align 4
  %mul2 = fmul float %5, %4
  store float %mul2, ptr %y, align 4
  %6 = load float, ptr %length, align 4
  store float %6, ptr %retval, align 4
  br label %return

return:                                           ; preds = %if.end, %if.then
  %7 = load float, ptr %retval, align 4
  ret float %7
}

; Function Attrs: mustprogress uwtable
define void @_ZN16b2PrismaticJointC2EPK19b2PrismaticJointDef(ptr noundef nonnull align 8 dereferenceable(300) %this, ptr noundef %def) unnamed_addr #0 align 2 personality ptr @__gxx_personality_v0 {
entry:
  %this.addr = alloca ptr, align 8
  %def.addr = alloca ptr, align 8
  %exn.slot = alloca ptr, align 8
  %ehselector.slot = alloca i32, align 4
  %ref.tmp = alloca %struct.b2Vec2, align 4
  store ptr %this, ptr %this.addr, align 8
  store ptr %def, ptr %def.addr, align 8
  %this1 = load ptr, ptr %this.addr, align 8
  %0 = load ptr, ptr %def.addr, align 8
  call void @_ZN7b2JointC2EPK10b2JointDef(ptr noundef nonnull align 8 dereferenceable(128) %this1, ptr noundef %0)
  store ptr getelementptr inbounds ({ [14 x ptr] }, ptr @_ZTV16b2PrismaticJoint, i32 0, i32 0, i32 2), ptr %this1, align 8
  %1 = load ptr, ptr %def.addr, align 8
  %localAnchorA = getelementptr inbounds %struct.b2PrismaticJointDef, ptr %1, i32 0, i32 1
  %m_localAnchorA2 = getelementptr inbounds %class.b2PrismaticJoint, ptr %this1, i32 0, i32 1
  call void @llvm.memcpy.p0.p0.i64(ptr align 8 %m_localAnchorA2, ptr align 4 %localAnchorA, i64 8, i1 false)
  %2 = load ptr, ptr %def.addr, align 8
  %localAnchorB = getelementptr inbounds %struct.b2PrismaticJointDef, ptr %2, i32 0, i32 2
  %m_localAnchorB3 = getelementptr inbounds %class.b2PrismaticJoint, ptr %this1, i32 0, i32 2
  call void @llvm.memcpy.p0.p0.i64(ptr align 8 %m_localAnchorB3, ptr align 4 %localAnchorB, i64 8, i1 false)
  %3 = load ptr, ptr %def.addr, align 8
  %localAxisA = getelementptr inbounds %struct.b2PrismaticJointDef, ptr %3, i32 0, i32 3
  %m_localXAxisA4 = getelementptr inbounds %class.b2PrismaticJoint, ptr %this1, i32 0, i32 3
  call void @llvm.memcpy.p0.p0.i64(ptr align 8 %m_localXAxisA4, ptr align 4 %localAxisA, i64 8, i1 false)
  %m_localXAxisA5 = getelementptr inbounds %class.b2PrismaticJoint, ptr %this1, i32 0, i32 3
  %call = invoke noundef float @_ZN6b2Vec29NormalizeEv(ptr noundef nonnull align 4 dereferenceable(8) %m_localXAxisA5)
          to label %invoke.cont unwind label %lpad

invoke.cont:                                      ; preds = %entry
  %m_localXAxisA6 = getelementptr inbounds %class.b2PrismaticJoint, ptr %this1, i32 0, i32 3
  %call8 = invoke <2 x float> @_Z7b2CrossfRK6b2Vec2(float noundef 1.000000e+00, ptr noundef nonnull align 4 dereferenceable(8) %m_localXAxisA6)
          to label %invoke.cont7 unwind label %lpad

invoke.cont7:                                     ; preds = %invoke.cont
  store <2 x float> %call8, ptr %ref.tmp, align 4
  %m_localYAxisA9 = getelementptr inbounds %class.b2PrismaticJoint, ptr %this1, i32 0, i32 4
  call void @llvm.memcpy.p0.p0.i64(ptr align 8 %m_localYAxisA9, ptr align 4 %ref.tmp, i64 8, i1 false)
  %4 = load ptr, ptr %def.addr, align 8
  %referenceAngle = getelementptr inbounds %struct.b2PrismaticJointDef, ptr %4, i32 0, i32 4
  %5 = load float, ptr %referenceAngle, align 4
  %m_referenceAngle = getelementptr inbounds %class.b2PrismaticJoint, ptr %this1, i32 0, i32 5
  store float %5, ptr %m_referenceAngle, align 8
  %m_impulse10 = getelementptr inbounds %class.b2PrismaticJoint, ptr %this1, i32 0, i32 6
  invoke void @_ZN6b2Vec27SetZeroEv(ptr noundef nonnull align 4 dereferenceable(8) %m_impulse10)
          to label %invoke.cont11 unwind label %lpad

invoke.cont11:                                    ; preds = %invoke.cont7
  %m_axialMass = getelementptr inbounds %class.b2PrismaticJoint, ptr %this1, i32 0, i32 33
  store float 0.000000e+00, ptr %m_axialMass, align 8
  %m_motorImpulse = getelementptr inbounds %class.b2PrismaticJoint, ptr %this1, i32 0, i32 7
  store float 0.000000e+00, ptr %m_motorImpulse, align 4
  %m_lowerImpulse = getelementptr inbounds %class.b2PrismaticJoint, ptr %this1, i32 0, i32 8
  store float 0.000000e+00, ptr %m_lowerImpulse, align 8
  %m_upperImpulse = getelementptr inbounds %class.b2PrismaticJoint, ptr %this1, i32 0, i32 9
  store float 0.000000e+00, ptr %m_upperImpulse, align 4
  %6 = load ptr, ptr %def.addr, align 8
  %lowerTranslation = getelementptr inbounds %struct.b2PrismaticJointDef, ptr %6, i32 0, i32 6
  %7 = load float, ptr %lowerTranslation, align 4
  %m_lowerTranslation = getelementptr inbounds %class.b2PrismaticJoint, ptr %this1, i32 0, i32 10
  store float %7, ptr %m_lowerTranslation, align 8
  %8 = load ptr, ptr %def.addr, align 8
  %upperTranslation = getelementptr inbounds %struct.b2PrismaticJointDef, ptr %8, i32 0, i32 7
  %9 = load float, ptr %upperTranslation, align 8
  %m_upperTranslation = getelementptr inbounds %class.b2PrismaticJoint, ptr %this1, i32 0, i32 11
  store float %9, ptr %m_upperTranslation, align 4
  %10 = load ptr, ptr %def.addr, align 8
  %maxMotorForce = getelementptr inbounds %struct.b2PrismaticJointDef, ptr %10, i32 0, i32 9
  %11 = load float, ptr %maxMotorForce, align 8
  %m_maxMotorForce = getelementptr inbounds %class.b2PrismaticJoint, ptr %this1, i32 0, i32 12
  store float %11, ptr %m_maxMotorForce, align 8
  %12 = load ptr, ptr %def.addr, align 8
  %motorSpeed = getelementptr inbounds %struct.b2PrismaticJointDef, ptr %12, i32 0, i32 10
  %13 = load float, ptr %motorSpeed, align 4
  %m_motorSpeed = getelementptr inbounds %class.b2PrismaticJoint, ptr %this1, i32 0, i32 13
  store float %13, ptr %m_motorSpeed, align 4
  %14 = load ptr, ptr %def.addr, align 8
  %enableLimit = getelementptr inbounds %struct.b2PrismaticJointDef, ptr %14, i32 0, i32 5
  %15 = load i8, ptr %enableLimit, align 8
  %tobool = trunc i8 %15 to i1
  %m_enableLimit = getelementptr inbounds %class.b2PrismaticJoint, ptr %this1, i32 0, i32 14
  %frombool = zext i1 %tobool to i8
  store i8 %frombool, ptr %m_enableLimit, align 8
  %16 = load ptr, ptr %def.addr, align 8
  %enableMotor = getelementptr inbounds %struct.b2PrismaticJointDef, ptr %16, i32 0, i32 8
  %17 = load i8, ptr %enableMotor, align 4
  %tobool12 = trunc i8 %17 to i1
  %m_enableMotor = getelementptr inbounds %class.b2PrismaticJoint, ptr %this1, i32 0, i32 15
  %frombool13 = zext i1 %tobool12 to i8
  store i8 %frombool13, ptr %m_enableMotor, align 1
  %m_translation = getelementptr inbounds %class.b2PrismaticJoint, ptr %this1, i32 0, i32 32
  store float 0.000000e+00, ptr %m_translation, align 4
  %m_axis14 = getelementptr inbounds %class.b2PrismaticJoint, ptr %this1, i32 0, i32 25
  invoke void @_ZN6b2Vec27SetZeroEv(ptr noundef nonnull align 4 dereferenceable(8) %m_axis14)
          to label %invoke.cont15 unwind label %lpad

invoke.cont15:                                    ; preds = %invoke.cont11
  %m_perp16 = getelementptr inbounds %class.b2PrismaticJoint, ptr %this1, i32 0, i32 26
  invoke void @_ZN6b2Vec27SetZeroEv(ptr noundef nonnull align 4 dereferenceable(8) %m_perp16)
          to label %invoke.cont17 unwind label %lpad

invoke.cont17:                                    ; preds = %invoke.cont15
  ret void

lpad:                                             ; preds = %invoke.cont15, %invoke.cont11, %invoke.cont7, %invoke.cont, %entry
  %18 = landingpad { ptr, i32 }
          cleanup
  %19 = extractvalue { ptr, i32 } %18, 0
  store ptr %19, ptr %exn.slot, align 8
  %20 = extractvalue { ptr, i32 } %18, 1
  store i32 %20, ptr %ehselector.slot, align 4
  call void @_ZN7b2JointD2Ev(ptr noundef nonnull align 8 dereferenceable(128) %this1) #9
  br label %eh.resume

eh.resume:                                        ; preds = %lpad
  %exn = load ptr, ptr %exn.slot, align 8
  %sel = load i32, ptr %ehselector.slot, align 4
  %lpad.val = insertvalue { ptr, i32 } poison, ptr %exn, 0
  %lpad.val18 = insertvalue { ptr, i32 } %lpad.val, i32 %sel, 1
  resume { ptr, i32 } %lpad.val18
}