; Function Attrs: mustprogress uwtable
define void @_ZN16b2PrismaticJointC2EPK19b2PrismaticJointDef(ptr noundef nonnull align 8 dereferenceable(300) %this, ptr noundef %def) unnamed_addr #1 align 2 personality ptr @__gxx_personality_v0 {
entry:
  tail call void @_ZN7b2JointC2EPK10b2JointDef(ptr noundef nonnull align 8 dereferenceable(128) %this, ptr noundef %def)
  store ptr getelementptr inbounds ({ [14 x ptr] }, ptr @_ZTV16b2PrismaticJoint, i64 0, i32 0, i64 2), ptr %this, align 8
  %localAnchorA = getelementptr inbounds i8, ptr %def, i64 36
  %m_localAnchorA2 = getelementptr inbounds i8, ptr %this, i64 128
  %0 = load i64, ptr %localAnchorA, align 4
  store i64 %0, ptr %m_localAnchorA2, align 8
  %localAnchorB = getelementptr inbounds i8, ptr %def, i64 44
  %m_localAnchorB3 = getelementptr inbounds i8, ptr %this, i64 136
  %1 = load i64, ptr %localAnchorB, align 4
  store i64 %1, ptr %m_localAnchorB3, align 8
  %localAxisA = getelementptr inbounds i8, ptr %def, i64 52
  %m_localXAxisA4 = getelementptr inbounds i8, ptr %this, i64 144
  %2 = load i64, ptr %localAxisA, align 4
  store i64 %2, ptr %m_localXAxisA4, align 8
  %3 = trunc i64 %2 to i32
  %4 = bitcast i32 %3 to float
  %5 = lshr i64 %2, 32
  %6 = trunc i64 %5 to i32
  %7 = bitcast i32 %6 to float
  %mul4.i.i = fmul float %7, %7
  %8 = tail call float @llvm.fmuladd.f32(float %4, float %4, float %mul4.i.i)
  %sqrt.i.i = tail call noundef float @llvm.sqrt.f32(float %8)
  %cmp.i = fcmp olt float %sqrt.i.i, 0x3E80000000000000
  br i1 %cmp.i, label %invoke.cont7, label %if.end.i

if.end.i:                                         ; preds = %entry
  %y.i.i = getelementptr inbounds i8, ptr %this, i64 148
  %div.i = fdiv float 1.000000e+00, %sqrt.i.i
  %mul.i = fmul float %div.i, %4
  store float %mul.i, ptr %m_localXAxisA4, align 8
  %mul2.i = fmul float %div.i, %7
  store float %mul2.i, ptr %y.i.i, align 4
  br label %invoke.cont7

invoke.cont7:                                     ; preds = %entry, %if.end.i
  %9 = phi float [ %4, %entry ], [ %mul.i, %if.end.i ]
  %10 = phi float [ %7, %entry ], [ %mul2.i, %if.end.i ]
  %mul.i11 = fneg float %10
  %retval.sroa.0.0.vec.insert.i = insertelement <2 x float> poison, float %mul.i11, i64 0
  %retval.sroa.0.4.vec.insert.i = insertelement <2 x float> %retval.sroa.0.0.vec.insert.i, float %9, i64 1
  %m_localYAxisA9 = getelementptr inbounds i8, ptr %this, i64 152
  store <2 x float> %retval.sroa.0.4.vec.insert.i, ptr %m_localYAxisA9, align 8
  %referenceAngle = getelementptr inbounds i8, ptr %def, i64 60
  %11 = load float, ptr %referenceAngle, align 4
  %m_referenceAngle = getelementptr inbounds i8, ptr %this, i64 160
  store float %11, ptr %m_referenceAngle, align 8
  %m_impulse10 = getelementptr inbounds i8, ptr %this, i64 164
  %m_axialMass = getelementptr inbounds i8, ptr %this, i64 296
  store float 0.000000e+00, ptr %m_axialMass, align 8
  %lowerTranslation = getelementptr inbounds i8, ptr %def, i64 68
  tail call void @llvm.memset.p0.i64(ptr noundef nonnull align 4 dereferenceable(20) %m_impulse10, i8 0, i64 20, i1 false)
  %12 = load float, ptr %lowerTranslation, align 4
  %m_lowerTranslation = getelementptr inbounds i8, ptr %this, i64 184
  store float %12, ptr %m_lowerTranslation, align 8
  %upperTranslation = getelementptr inbounds i8, ptr %def, i64 72
  %13 = load float, ptr %upperTranslation, align 8
  %m_upperTranslation = getelementptr inbounds i8, ptr %this, i64 188
  store float %13, ptr %m_upperTranslation, align 4
  %maxMotorForce = getelementptr inbounds i8, ptr %def, i64 80
  %14 = load float, ptr %maxMotorForce, align 8
  %m_maxMotorForce = getelementptr inbounds i8, ptr %this, i64 192
  store float %14, ptr %m_maxMotorForce, align 8
  %motorSpeed = getelementptr inbounds i8, ptr %def, i64 84
  %15 = load float, ptr %motorSpeed, align 4
  %m_motorSpeed = getelementptr inbounds i8, ptr %this, i64 196
  store float %15, ptr %m_motorSpeed, align 4
  %enableLimit = getelementptr inbounds i8, ptr %def, i64 64
  %16 = load i8, ptr %enableLimit, align 8
  %17 = and i8 %16, 1
  %m_enableLimit = getelementptr inbounds i8, ptr %this, i64 200
  store i8 %17, ptr %m_enableLimit, align 8
  %enableMotor = getelementptr inbounds i8, ptr %def, i64 76
  %18 = load i8, ptr %enableMotor, align 4
  %19 = and i8 %18, 1
  %m_enableMotor = getelementptr inbounds i8, ptr %this, i64 201
  store i8 %19, ptr %m_enableMotor, align 1
  %m_translation = getelementptr inbounds i8, ptr %this, i64 292
  store float 0.000000e+00, ptr %m_translation, align 4
  %m_axis14 = getelementptr inbounds i8, ptr %this, i64 244
  tail call void @llvm.memset.p0.i64(ptr noundef nonnull align 4 dereferenceable(16) %m_axis14, i8 0, i64 16, i1 false)
  ret void
}